target datalayout = "e-m:e-p270:32:32-p271:32:32-p272:64:64-i64:64-i128:128-f80:128-n8:16:32:64-S128"
target triple = "x86_64-pc-linux-gnu"

%struct.Gia_Man_t_ = type { ptr, ptr, i32, i32, i32, i32, ptr, ptr, i32, i32, i32, ptr, ptr, %struct.Vec_Int_t_, %struct.Vec_Int_t_, i32, i32, i32, %struct.Vec_Int_t_, ptr, ptr, ptr, i32, i32, i32, i32, ptr, ptr, ptr, ptr, ptr, i32, i32, ptr, i32, ptr, ptr, ptr, ptr, ptr, ptr, ptr, ptr, ptr, ptr, ptr, ptr, ptr, ptr, ptr, ptr, ptr, ptr, %struct.Vec_Int_t_, %struct.Vec_Int_t_, ptr, ptr, ptr, ptr, ptr, ptr, ptr, ptr, ptr, ptr, ptr, ptr, ptr, ptr, ptr, ptr, ptr, ptr, ptr, ptr, ptr, i32, float, float, ptr, ptr, i32, ptr, ptr, ptr, ptr, ptr, ptr, ptr, ptr, ptr, ptr, ptr, ptr, ptr, ptr, ptr, i64, i64, ptr, ptr, i32, i32, i32, i32, i32, i32, i32, i32, i32, i32, i32, i32, ptr, ptr, ptr, ptr, ptr, ptr, ptr, ptr, i32, i32, i32, ptr, i32, i32, ptr, ptr, ptr, ptr, ptr, ptr, i32, i32, ptr, %struct.Vec_Int_t_, %struct.Vec_Int_t_, %struct.Vec_Int_t_, ptr, ptr, ptr, i32, i32, i32, i32, ptr, ptr, ptr, ptr, ptr }
%struct.Vec_Int_t_ = type { i32, i32, ptr }

@.str.4 = private unnamed_addr constant [6 x i8] c"multi\00", align 1

; Function Attrs: inlinehint nounwind uwtable
define internal i32 @Abc_Var2Lit(i32 noundef %0, i32 noundef %1) #1 {
  %3 = alloca i32, align 4
  %4 = alloca i32, align 4
  store i32 %0, ptr %3, align 4, !tbaa !8
  store i32 %1, ptr %4, align 4, !tbaa !8
  %5 = load i32, ptr %3, align 4, !tbaa !8
  %6 = load i32, ptr %3, align 4, !tbaa !8
  %7 = add nsw i32 %5, %6
  %8 = load i32, ptr %4, align 4, !tbaa !8
  %9 = add nsw i32 %7, %8
  ret i32 %9
}

; Function Attrs: nounwind uwtable
define ptr @Gia_ManGenPerm2(i32 noundef %0) #0 {
  %2 = alloca i32, align 4
  %3 = alloca i32, align 4
  %4 = alloca ptr, align 8
  store i32 %0, ptr %2, align 4, !tbaa !8
  call void @llvm.lifetime.start.p0(i64 4, ptr %3) #12
  call void @llvm.lifetime.start.p0(i64 8, ptr %4) #12
  %5 = load i32, ptr %2, align 4, !tbaa !8
  %6 = sext i32 %5 to i64
  %7 = call noalias ptr @calloc(i64 noundef %6, i64 noundef 4) #16
  store ptr %7, ptr %4, align 8, !tbaa !10
  %8 = call i64 @time(ptr noundef null) #12
  %9 = trunc i64 %8 to i32
  call void @srand(i32 noundef %9) #12
  store i32 0, ptr %3, align 4, !tbaa !8
  br label %10

10:                                               ; preds = %22, %1
  %11 = load i32, ptr %3, align 4, !tbaa !8
  %12 = load i32, ptr %2, align 4, !tbaa !8
  %13 = icmp slt i32 %11, %12
  br i1 %13, label %14, label %25

14:                                               ; preds = %10
  %15 = call i32 @rand() #12
  %16 = load i32, ptr %2, align 4, !tbaa !8
  %17 = srem i32 %15, %16
  %18 = load ptr, ptr %4, align 8, !tbaa !10
  %19 = load i32, ptr %3, align 4, !tbaa !8
  %20 = sext i32 %19 to i64
  %21 = getelementptr inbounds i32, ptr %18, i64 %20
  store i32 %17, ptr %21, align 4, !tbaa !8
  br label %22

22:                                               ; preds = %14
  %23 = load i32, ptr %3, align 4, !tbaa !8
  %24 = add nsw i32 %23, 1
  store i32 %24, ptr %3, align 4, !tbaa !8
  br label %10, !llvm.loop !77

25:                                               ; preds = %10
  %26 = load ptr, ptr %4, align 8, !tbaa !10
  call void @llvm.lifetime.end.p0(i64 8, ptr %4) #12
  call void @llvm.lifetime.end.p0(i64 4, ptr %3) #12
  ret ptr %26
}

; Function Attrs: inlinehint nounwind uwtable
define internal ptr @Abc_UtilStrsav(ptr noundef %0) #1 {
  %2 = alloca ptr, align 8
  store ptr %0, ptr %2, align 8, !tbaa !68
  %3 = load ptr, ptr %2, align 8, !tbaa !68
  %4 = icmp ne ptr %3, null
  br i1 %4, label %5, label %13

5:                                                ; preds = %1
  %6 = load ptr, ptr %2, align 8, !tbaa !68
  %7 = call i64 @strlen(ptr noundef %6) #15
  %8 = add i64 %7, 1
  %9 = mul i64 1, %8
  %10 = call noalias ptr @malloc(i64 noundef %9) #14
  %11 = load ptr, ptr %2, align 8, !tbaa !68
  %12 = call ptr @strcpy(ptr noundef %10, ptr noundef %11) #12
  br label %14

13:                                               ; preds = %1
  br label %14

14:                                               ; preds = %13, %5
  %15 = phi ptr [ %12, %5 ], [ null, %13 ]
  ret ptr %15
}

; Function Attrs: nounwind uwtable
define ptr @Gia_ManCollectLiterals(i32 noundef %0) #0 {
  %2 = alloca i32, align 4
  %3 = alloca i32, align 4
  %4 = alloca ptr, align 8
  store i32 %0, ptr %2, align 4, !tbaa !8
  call void @llvm.lifetime.start.p0(i64 4, ptr %3) #12
  call void @llvm.lifetime.start.p0(i64 8, ptr %4) #12
  %5 = load i32, ptr %2, align 4, !tbaa !8
  %6 = sext i32 %5 to i64
  %7 = call noalias ptr @calloc(i64 noundef %6, i64 noundef 4) #16
  store ptr %7, ptr %4, align 8, !tbaa !10
  store i32 0, ptr %3, align 4, !tbaa !8
  br label %8

8:                                                ; preds = %20, %1
  %9 = load i32, ptr %3, align 4, !tbaa !8
  %10 = load i32, ptr %2, align 4, !tbaa !8
  %11 = icmp slt i32 %9, %10
  br i1 %11, label %12, label %23

12:                                               ; preds = %8
  %13 = load i32, ptr %3, align 4, !tbaa !8
  %14 = add nsw i32 %13, 1
  %15 = call i32 @Abc_Var2Lit(i32 noundef %14, i32 noundef 0)
  %16 = load ptr, ptr %4, align 8, !tbaa !10
  %17 = load i32, ptr %3, align 4, !tbaa !8
  %18 = sext i32 %17 to i64
  %19 = getelementptr inbounds i32, ptr %16, i64 %18
  store i32 %15, ptr %19, align 4, !tbaa !8
  br label %20

20:                                               ; preds = %12
  %21 = load i32, ptr %3, align 4, !tbaa !8
  %22 = add nsw i32 %21, 1
  store i32 %22, ptr %3, align 4, !tbaa !8
  br label %8, !llvm.loop !74

23:                                               ; preds = %8
  %24 = load ptr, ptr %4, align 8, !tbaa !10
  call void @llvm.lifetime.end.p0(i64 8, ptr %4) #12
  call void @llvm.lifetime.end.p0(i64 4, ptr %3) #12
  ret ptr %24
}

; Function Attrs: nounwind uwtable
define ptr @Gia_ManMultiInputTest(i32 noundef %0) #0 {
  %2 = alloca i32, align 4
  %3 = alloca ptr, align 8
  %4 = alloca i32, align 4
  %5 = alloca i32, align 4
  %6 = alloca ptr, align 8
  %7 = alloca ptr, align 8
  store i32 %0, ptr %2, align 4, !tbaa !8
  call void @llvm.lifetime.start.p0(i64 8, ptr %3) #12
  call void @llvm.lifetime.start.p0(i64 4, ptr %4) #12
  call void @llvm.lifetime.start.p0(i64 4, ptr %5) #12
  call void @llvm.lifetime.start.p0(i64 8, ptr %6) #12
  call void @llvm.lifetime.start.p0(i64 8, ptr %7) #12
  %8 = load i32, ptr %2, align 4, !tbaa !8
  %9 = call ptr @Gia_ManCollectLiterals(i32 noundef %8)
  store ptr %9, ptr %7, align 8, !tbaa !10
  %10 = call ptr @Gia_ManStart(i32 noundef 1000)
  store ptr %10, ptr %3, align 8, !tbaa !3
  %11 = call ptr @Abc_UtilStrsav(ptr noundef @.str.4)
  %12 = load ptr, ptr %3, align 8, !tbaa !3
  %13 = getelementptr inbounds nuw %struct.Gia_Man_t_, ptr %12, i32 0, i32 0
  store ptr %11, ptr %13, align 8, !tbaa !63
  store i32 0, ptr %4, align 4, !tbaa !8
  br label %14

14:                                               ; preds = %21, %1
  %15 = load i32, ptr %4, align 4, !tbaa !8
  %16 = load i32, ptr %2, align 4, !tbaa !8
  %17 = icmp slt i32 %15, %16
  br i1 %17, label %18, label %24

18:                                               ; preds = %14
  %19 = load ptr, ptr %3, align 8, !tbaa !3
  %20 = call i32 @Gia_ManAppendCi(ptr noundef %19)
  br label %21

21:                                               ; preds = %18
  %22 = load i32, ptr %4, align 4, !tbaa !8
  %23 = add nsw i32 %22, 1
  store i32 %23, ptr %4, align 4, !tbaa !8
  br label %14, !llvm.loop !84

24:                                               ; preds = %14
  %25 = load ptr, ptr %3, align 8, !tbaa !3
  call void @Gia_ManHashAlloc(ptr noundef %25)
  %26 = load i32, ptr %2, align 4, !tbaa !8
  %27 = call ptr @Gia_ManGenPerm2(i32 noundef %26)
  store ptr %27, ptr %6, align 8, !tbaa !10
  %28 = load ptr, ptr %3, align 8, !tbaa !3
  %29 = load ptr, ptr %7, align 8, !tbaa !10
  %30 = load i32, ptr %2, align 4, !tbaa !8
  %31 = load ptr, ptr %6, align 8, !tbaa !10
  %32 = call i32 @Gia_ManMultiInputPerm(ptr noundef %28, ptr noundef %29, i32 noundef %30, ptr noundef %31, i32 noundef 0, i32 noundef 0)
  store i32 %32, ptr %5, align 4, !tbaa !8
  %33 = load ptr, ptr %3, align 8, !tbaa !3
  %34 = load i32, ptr %5, align 4, !tbaa !8
  %35 = call i32 @Gia_ManAppendCo(ptr noundef %33, i32 noundef %34)
  %36 = load ptr, ptr %6, align 8, !tbaa !10
  %37 = icmp ne ptr %36, null
  br i1 %37, label %38, label %40

38:                                               ; preds = %24
  %39 = load ptr, ptr %6, align 8, !tbaa !10
  call void @free(ptr noundef %39) #12
  store ptr null, ptr %6, align 8, !tbaa !10
  br label %41

40:                                               ; preds = %24
  br label %41

41:                                               ; preds = %40, %38
  %42 = load ptr, ptr %7, align 8, !tbaa !10
  %43 = icmp ne ptr %42, null
  br i1 %43, label %44, label %46

44:                                               ; preds = %41
  %45 = load ptr, ptr %7, align 8, !tbaa !10
  call void @free(ptr noundef %45) #12
  store ptr null, ptr %7, align 8, !tbaa !10
  br label %47

46:                                               ; preds = %41
  br label %47

47:                                               ; preds = %46, %44
  %48 = load ptr, ptr %3, align 8, !tbaa !3
  call void @llvm.lifetime.end.p0(i64 8, ptr %7) #12
  call void @llvm.lifetime.end.p0(i64 8, ptr %6) #12
  call void @llvm.lifetime.end.p0(i64 4, ptr %5) #12
  call void @llvm.lifetime.end.p0(i64 4, ptr %4) #12
  call void @llvm.lifetime.end.p0(i64 8, ptr %3) #12
  ret ptr %48
}