; Function Attrs: nounwind uwtable
define noundef ptr @Gia_ManMultiInputTest(i32 noundef %0) local_unnamed_addr #2 {
  %2 = sext i32 %0 to i64
  %3 = tail call noalias ptr @calloc(i64 noundef %2, i64 noundef 4) #28
  %4 = icmp sgt i32 %0, 0
  br i1 %4, label %.lr.ph.preheader.i, label %Gia_ManCollectLiterals.exit

.lr.ph.preheader.i:                               ; preds = %1
  %wide.trip.count.i = zext nneg i32 %0 to i64
  br label %.lr.ph.i

.lr.ph.i:                                         ; preds = %.lr.ph.i, %.lr.ph.preheader.i
  %indvars.iv.i = phi i64 [ 0, %.lr.ph.preheader.i ], [ %indvars.iv.next.i, %.lr.ph.i ]
  %indvars.iv.next.i = add nuw nsw i64 %indvars.iv.i, 1
  %5 = getelementptr inbounds nuw i32, ptr %3, i64 %indvars.iv.i
  %indvars.iv.next.tr.i = trunc i64 %indvars.iv.next.i to i32
  %6 = shl i32 %indvars.iv.next.tr.i, 1
  store i32 %6, ptr %5, align 4, !tbaa !11
  %exitcond.not.i = icmp eq i64 %indvars.iv.next.i, %wide.trip.count.i
  br i1 %exitcond.not.i, label %Gia_ManCollectLiterals.exit, label %.lr.ph.i, !llvm.loop !67

Gia_ManCollectLiterals.exit:                      ; preds = %.lr.ph.i, %1
  %7 = tail call ptr @Gia_ManStart(i32 noundef 1000) #26
  %8 = tail call noalias dereferenceable_or_null(6) ptr @malloc(i64 noundef 6) #25
  tail call void @llvm.memcpy.p0.p0.i64(ptr noundef nonnull align 1 dereferenceable(6) %8, ptr noundef nonnull align 1 dereferenceable(6) @.str.4, i64 6, i1 false) #26
  store ptr %8, ptr %7, align 8, !tbaa !57
  br i1 %4, label %.lr.ph, label %._crit_edge

.lr.ph:                                           ; preds = %Gia_ManCollectLiterals.exit, %.lr.ph
  %.028 = phi i32 [ %10, %.lr.ph ], [ 0, %Gia_ManCollectLiterals.exit ]
  %9 = tail call fastcc i32 @Gia_ManAppendCi(ptr noundef nonnull %7)
  %10 = add nuw nsw i32 %.028, 1
  %exitcond.not = icmp eq i32 %10, %0
  br i1 %exitcond.not, label %._crit_edge, label %.lr.ph, !llvm.loop !77

._crit_edge:                                      ; preds = %.lr.ph, %Gia_ManCollectLiterals.exit
  tail call void @Gia_ManHashAlloc(ptr noundef nonnull %7)
  %11 = tail call noalias ptr @calloc(i64 noundef %2, i64 noundef 4) #28
  %12 = tail call i64 @time(ptr noundef null) #26
  %13 = trunc i64 %12 to i32
  tail call void @srand(i32 noundef %13) #26
  br i1 %4, label %.lr.ph.preheader.i22, label %Gia_ManGenPerm2.exit

.lr.ph.preheader.i22:                             ; preds = %._crit_edge
  %wide.trip.count.i23 = zext nneg i32 %0 to i64
  br label %.lr.ph.i24

.lr.ph.i24:                                       ; preds = %.lr.ph.i24, %.lr.ph.preheader.i22
  %indvars.iv.i25 = phi i64 [ 0, %.lr.ph.preheader.i22 ], [ %indvars.iv.next.i26, %.lr.ph.i24 ]
  %14 = tail call i32 @rand() #26
  %15 = srem i32 %14, %0
  %16 = getelementptr inbounds nuw i32, ptr %11, i64 %indvars.iv.i25
  store i32 %15, ptr %16, align 4, !tbaa !11
  %indvars.iv.next.i26 = add nuw nsw i64 %indvars.iv.i25, 1
  %exitcond.not.i27 = icmp eq i64 %indvars.iv.next.i26, %wide.trip.count.i23
  br i1 %exitcond.not.i27, label %Gia_ManGenPerm2.exit, label %.lr.ph.i24, !llvm.loop !70

Gia_ManGenPerm2.exit:                             ; preds = %.lr.ph.i24, %._crit_edge
  %17 = tail call i32 @Gia_ManMultiInputPerm(ptr noundef nonnull %7, ptr noundef %3, i32 noundef %0, ptr noundef %11, i32 noundef 0, i32 noundef 0)
  %18 = tail call fastcc i32 @Gia_ManAppendCo(ptr noundef nonnull %7, i32 noundef %17)
  %.not = icmp eq ptr %11, null
  br i1 %.not, label %20, label %19

19:                                               ; preds = %Gia_ManGenPerm2.exit
  tail call void @free(ptr noundef nonnull %11) #26
  br label %20

20:                                               ; preds = %Gia_ManGenPerm2.exit, %19
  %.not21 = icmp eq ptr %3, null
  br i1 %.not21, label %22, label %21

21:                                               ; preds = %20
  tail call void @free(ptr noundef nonnull %3) #26
  br label %22

22:                                               ; preds = %20, %21
  ret ptr %7
}